target datalayout = "e-m:e-p270:32:32-p271:32:32-p272:64:64-i64:64-i128:128-f80:128-n8:16:32:64-S128"
target triple = "x86_64-pc-linux-gnu"

%struct.curltime = type { i64, i32 }
%struct.dynbuf = type { ptr, i64, i64, i64 }
%struct.pingpong = type { i64, i8, ptr, i64, i64, %struct.curltime, i64, %struct.dynbuf, %struct.dynbuf, i64, i64, ptr, ptr }

; Function Attrs: nounwind uwtable
define hidden zeroext i1 @Curl_pp_needs_flush(ptr noundef %0, ptr noundef %1) #0 {
  %3 = alloca ptr, align 8
  %4 = alloca ptr, align 8
  store ptr %0, ptr %3, align 8, !tbaa !3
  store ptr %1, ptr %4, align 8, !tbaa !8
  %5 = load ptr, ptr %4, align 8, !tbaa !8
  %6 = getelementptr inbounds nuw %struct.pingpong, ptr %5, i32 0, i32 3
  %7 = load i64, ptr %6, align 8, !tbaa !91
  %8 = icmp ugt i64 %7, 0
  ret i1 %8
}

; Function Attrs: nounwind uwtable
define hidden i32 @Curl_pp_flushsend(ptr noundef %0, ptr noundef %1) #0 {
  %3 = alloca i32, align 4
  %4 = alloca ptr, align 8
  %5 = alloca ptr, align 8
  %6 = alloca i64, align 8
  %7 = alloca i32, align 4
  %8 = alloca i32, align 4
  %9 = alloca %struct.curltime, align 8
  store ptr %0, ptr %4, align 8, !tbaa !3
  store ptr %1, ptr %5, align 8, !tbaa !8
  call void @llvm.lifetime.start.p0(i64 8, ptr %6) #7
  call void @llvm.lifetime.start.p0(i64 4, ptr %7) #7
  %10 = load ptr, ptr %4, align 8, !tbaa !3
  %11 = load ptr, ptr %5, align 8, !tbaa !8
  %12 = call zeroext i1 @Curl_pp_needs_flush(ptr noundef %10, ptr noundef %11)
  br i1 %12, label %14, label %13

13:                                               ; preds = %2
  store i32 0, ptr %3, align 4
  store i32 1, ptr %8, align 4
  br label %67

14:                                               ; preds = %2
  %15 = load ptr, ptr %4, align 8, !tbaa !3
  %16 = load ptr, ptr %5, align 8, !tbaa !8
  %17 = getelementptr inbounds nuw %struct.pingpong, ptr %16, i32 0, i32 2
  %18 = load ptr, ptr %17, align 8, !tbaa !99
  %19 = load ptr, ptr %5, align 8, !tbaa !8
  %20 = getelementptr inbounds nuw %struct.pingpong, ptr %19, i32 0, i32 4
  %21 = load i64, ptr %20, align 8, !tbaa !100
  %22 = getelementptr inbounds nuw i8, ptr %18, i64 %21
  %23 = load ptr, ptr %5, align 8, !tbaa !8
  %24 = getelementptr inbounds nuw %struct.pingpong, ptr %23, i32 0, i32 3
  %25 = load i64, ptr %24, align 8, !tbaa !91
  %26 = sub i64 0, %25
  %27 = getelementptr inbounds i8, ptr %22, i64 %26
  %28 = load ptr, ptr %5, align 8, !tbaa !8
  %29 = getelementptr inbounds nuw %struct.pingpong, ptr %28, i32 0, i32 3
  %30 = load i64, ptr %29, align 8, !tbaa !91
  %31 = call i32 @Curl_conn_send(ptr noundef %15, i32 noundef 0, ptr noundef %27, i64 noundef %30, i1 noundef zeroext false, ptr noundef %6)
  store i32 %31, ptr %7, align 4, !tbaa !89
  %32 = load i32, ptr %7, align 4, !tbaa !89
  %33 = icmp eq i32 %32, 81
  br i1 %33, label %34, label %35

34:                                               ; preds = %14
  store i32 0, ptr %7, align 4, !tbaa !89
  store i64 0, ptr %6, align 8, !tbaa !85
  br label %35

35:                                               ; preds = %34, %14
  %36 = load i32, ptr %7, align 4, !tbaa !89
  %37 = icmp ne i32 %36, 0
  br i1 %37, label %38, label %40

38:                                               ; preds = %35
  %39 = load i32, ptr %7, align 4, !tbaa !89
  store i32 %39, ptr %3, align 4
  store i32 1, ptr %8, align 4
  br label %67

40:                                               ; preds = %35
  %41 = load i64, ptr %6, align 8, !tbaa !85
  %42 = load ptr, ptr %5, align 8, !tbaa !8
  %43 = getelementptr inbounds nuw %struct.pingpong, ptr %42, i32 0, i32 3
  %44 = load i64, ptr %43, align 8, !tbaa !91
  %45 = icmp ne i64 %41, %44
  br i1 %45, label %46, label %52

46:                                               ; preds = %40
  %47 = load i64, ptr %6, align 8, !tbaa !85
  %48 = load ptr, ptr %5, align 8, !tbaa !8
  %49 = getelementptr inbounds nuw %struct.pingpong, ptr %48, i32 0, i32 3
  %50 = load i64, ptr %49, align 8, !tbaa !91
  %51 = sub i64 %50, %47
  store i64 %51, ptr %49, align 8, !tbaa !91
  br label %66

52:                                               ; preds = %40
  %53 = load ptr, ptr %5, align 8, !tbaa !8
  %54 = getelementptr inbounds nuw %struct.pingpong, ptr %53, i32 0, i32 2
  store ptr null, ptr %54, align 8, !tbaa !99
  %55 = load ptr, ptr %5, align 8, !tbaa !8
  %56 = getelementptr inbounds nuw %struct.pingpong, ptr %55, i32 0, i32 4
  store i64 0, ptr %56, align 8, !tbaa !100
  %57 = load ptr, ptr %5, align 8, !tbaa !8
  %58 = getelementptr inbounds nuw %struct.pingpong, ptr %57, i32 0, i32 3
  store i64 0, ptr %58, align 8, !tbaa !91
  %59 = load ptr, ptr %5, align 8, !tbaa !8
  %60 = getelementptr inbounds nuw %struct.pingpong, ptr %59, i32 0, i32 5
  call void @llvm.lifetime.start.p0(i64 16, ptr %9) #7
  %61 = call { i64, i32 } @Curl_now()
  %62 = getelementptr inbounds nuw { i64, i32 }, ptr %9, i32 0, i32 0
  %63 = extractvalue { i64, i32 } %61, 0
  store i64 %63, ptr %62, align 8
  %64 = getelementptr inbounds nuw { i64, i32 }, ptr %9, i32 0, i32 1
  %65 = extractvalue { i64, i32 } %61, 1
  store i32 %65, ptr %64, align 8
  call void @llvm.memcpy.p0.p0.i64(ptr align 8 %60, ptr align 8 %9, i64 16, i1 false), !tbaa.struct !94
  call void @llvm.lifetime.end.p0(i64 16, ptr %9) #7
  br label %66

66:                                               ; preds = %52, %46
  store i32 0, ptr %3, align 4
  store i32 1, ptr %8, align 4
  br label %67

67:                                               ; preds = %66, %38, %13
  call void @llvm.lifetime.end.p0(i64 4, ptr %7) #7
  call void @llvm.lifetime.end.p0(i64 8, ptr %6) #7
  %68 = load i32, ptr %3, align 4
  ret i32 %68
}